; Function Attrs: mustprogress nounwind uwtable
define hidden void @_ZN19OpenColorIO_v2_5dev21GradingRGBCurveOpData8setStyleENS_12GradingStyleE(ptr noundef nonnull align 8 captures(none) dereferenceable(200) %0, i32 noundef %1) local_unnamed_addr #5 align 2 personality ptr @__gxx_personality_v0 {
  %3 = alloca %"class.std::shared_ptr.24", align 8
  %4 = alloca %"class.std::shared_ptr.27", align 8
  %5 = getelementptr inbounds nuw i8, ptr %0, i64 168
  %6 = load i32, ptr %5, align 8, !tbaa !35
  %.not = icmp eq i32 %1, %6
  br i1 %.not, label %40, label %7

7:                                                ; preds = %2
  store i32 %1, ptr %5, align 8, !tbaa !35
  call void @llvm.lifetime.start.p0(i64 16, ptr nonnull %3) #22
  call void @llvm.lifetime.start.p0(i64 16, ptr nonnull %4) #22
  invoke void @_ZN19OpenColorIO_v2_5dev15GradingRGBCurve6CreateENS_12GradingStyleE(ptr dead_on_unwind nonnull writable sret(%"class.std::shared_ptr.27") align 8 %4, i32 noundef %1)
          to label %_ZNSt12__shared_ptrIN19OpenColorIO_v2_5dev15GradingRGBCurveELN9__gnu_cxx12_Lock_policyE2EED2Ev.exit unwind label %41

_ZNSt12__shared_ptrIN19OpenColorIO_v2_5dev15GradingRGBCurveELN9__gnu_cxx12_Lock_policyE2EED2Ev.exit: ; preds = %7
  %8 = load ptr, ptr %4, align 8, !tbaa !63
  store ptr %8, ptr %3, align 8, !tbaa !66
  %9 = getelementptr inbounds nuw i8, ptr %3, i64 8
  %10 = getelementptr inbounds nuw i8, ptr %4, i64 8
  %11 = load ptr, ptr %10, align 8, !tbaa !13
  store ptr %11, ptr %9, align 8, !tbaa !13
  call void @llvm.lifetime.end.p0(i64 16, ptr nonnull %4) #22
  %12 = getelementptr inbounds nuw i8, ptr %0, i64 176
  %13 = load ptr, ptr %12, align 8, !tbaa !78
  %14 = load ptr, ptr %13, align 8, !tbaa !18
  %15 = getelementptr inbounds nuw i8, ptr %14, i64 32
  %16 = load ptr, ptr %15, align 8
  invoke void %16(ptr noundef nonnull align 8 dereferenceable(144) %13, ptr noundef nonnull align 8 dereferenceable(16) %3)
          to label %17 unwind label %41

17:                                               ; preds = %_ZNSt12__shared_ptrIN19OpenColorIO_v2_5dev15GradingRGBCurveELN9__gnu_cxx12_Lock_policyE2EED2Ev.exit
  %18 = load ptr, ptr %9, align 8, !tbaa !13
  %.not.i.i3 = icmp eq ptr %18, null
  br i1 %.not.i.i3, label %_ZNSt12__shared_ptrIKN19OpenColorIO_v2_5dev15GradingRGBCurveELN9__gnu_cxx12_Lock_policyE2EED2Ev.exit, label %19

19:                                               ; preds = %17
  %20 = getelementptr inbounds nuw i8, ptr %18, i64 8
  %21 = load atomic i64, ptr %20 acquire, align 8
  %22 = icmp eq i64 %21, 4294967297
  %23 = trunc i64 %21 to i32
  br i1 %22, label %24, label %32

24:                                               ; preds = %19
  store i32 0, ptr %20, align 8, !tbaa !14
  %25 = getelementptr inbounds nuw i8, ptr %18, i64 12
  store i32 0, ptr %25, align 4, !tbaa !17
  %26 = load ptr, ptr %18, align 8, !tbaa !18
  %27 = getelementptr inbounds nuw i8, ptr %26, i64 16
  %28 = load ptr, ptr %27, align 8
  call void %28(ptr noundef nonnull align 8 dereferenceable(16) %18) #22
  %29 = load ptr, ptr %18, align 8, !tbaa !18
  %30 = getelementptr inbounds nuw i8, ptr %29, i64 24
  %31 = load ptr, ptr %30, align 8
  call void %31(ptr noundef nonnull align 8 dereferenceable(16) %18) #22
  br label %_ZNSt12__shared_ptrIKN19OpenColorIO_v2_5dev15GradingRGBCurveELN9__gnu_cxx12_Lock_policyE2EED2Ev.exit

32:                                               ; preds = %19
  %33 = load i8, ptr @__libc_single_threaded, align 1, !tbaa !20
  %.not.i.i.i4 = icmp eq i8 %33, 0
  br i1 %.not.i.i.i4, label %36, label %34

34:                                               ; preds = %32
  %35 = add nsw i32 %23, -1
  store i32 %35, ptr %20, align 4, !tbaa !21
  br label %_ZN9__gnu_cxx27__exchange_and_add_dispatchEPii.exit.i.i.i5

36:                                               ; preds = %32
  %37 = atomicrmw volatile add ptr %20, i32 -1 acq_rel, align 4
  br label %_ZN9__gnu_cxx27__exchange_and_add_dispatchEPii.exit.i.i.i5

_ZN9__gnu_cxx27__exchange_and_add_dispatchEPii.exit.i.i.i5: ; preds = %36, %34
  %.0.i.i.i.i6 = phi i32 [ %23, %34 ], [ %37, %36 ]
  %38 = icmp eq i32 %.0.i.i.i.i6, 1
  br i1 %38, label %39, label %_ZNSt12__shared_ptrIKN19OpenColorIO_v2_5dev15GradingRGBCurveELN9__gnu_cxx12_Lock_policyE2EED2Ev.exit, !prof !22

39:                                               ; preds = %_ZN9__gnu_cxx27__exchange_and_add_dispatchEPii.exit.i.i.i5
  call void @_ZNSt16_Sp_counted_baseILN9__gnu_cxx12_Lock_policyE2EE24_M_release_last_use_coldEv(ptr noundef nonnull align 8 dereferenceable(16) %18) #22
  br label %_ZNSt12__shared_ptrIKN19OpenColorIO_v2_5dev15GradingRGBCurveELN9__gnu_cxx12_Lock_policyE2EED2Ev.exit

_ZNSt12__shared_ptrIKN19OpenColorIO_v2_5dev15GradingRGBCurveELN9__gnu_cxx12_Lock_policyE2EED2Ev.exit: ; preds = %17, %24, %_ZN9__gnu_cxx27__exchange_and_add_dispatchEPii.exit.i.i.i5, %39
  call void @llvm.lifetime.end.p0(i64 16, ptr nonnull %3) #22
  br label %40

40:                                               ; preds = %_ZNSt12__shared_ptrIKN19OpenColorIO_v2_5dev15GradingRGBCurveELN9__gnu_cxx12_Lock_policyE2EED2Ev.exit, %2
  ret void

41:                                               ; preds = %_ZNSt12__shared_ptrIN19OpenColorIO_v2_5dev15GradingRGBCurveELN9__gnu_cxx12_Lock_policyE2EED2Ev.exit, %7
  %42 = landingpad { ptr, i32 }
          catch ptr null
  %43 = extractvalue { ptr, i32 } %42, 0
  call void @__clang_call_terminate(ptr %43) #26
  unreachable
}